; Function Attrs: mustprogress nounwind null_pointer_is_valid sspstrong uwtable
define void @_ZN13ProgressFrameD2Ev(ptr noundef align 8 dereferenceable_or_null(152) initializes((0, 8), (16, 24)) %0) unnamed_addr #8 align 2 {
  store ptr getelementptr inbounds nuw inrange(-16, 424) (i8, ptr @_ZTV13ProgressFrame, i64 16), ptr %0, align 8
  %2 = getelementptr inbounds nuw i8, ptr %0, i64 16
  store ptr getelementptr inbounds nuw inrange(-16, 64) (i8, ptr @_ZTV13ProgressFrame, i64 456), ptr %2, align 8
  %3 = getelementptr inbounds nuw i8, ptr %0, i64 40
  %4 = load ptr, ptr %3, align 8
  %5 = icmp eq ptr %4, null
  br i1 %5, label %7, label %6

6:                                                ; preds = %1
  tail call void @_ZdlPvm(ptr noundef nonnull %4, i64 noundef 32) #13
  br label %7

7:                                                ; preds = %6, %1
  %8 = getelementptr inbounds nuw i8, ptr %0, i64 88
  %9 = load ptr, ptr %8, align 8
  %.not.i.i.i = icmp eq ptr %9, null
  br i1 %.not.i.i.i, label %_ZN7QStringD2Ev.exit, label %_ZN17QArrayDataPointerIDsE5derefEv.exit.i.i

_ZN17QArrayDataPointerIDsE5derefEv.exit.i.i:      ; preds = %7
  %10 = atomicrmw sub ptr %9, i32 1 seq_cst, align 4
  %.not.i.i = icmp eq i32 %10, 1
  br i1 %.not.i.i, label %11, label %_ZN7QStringD2Ev.exit

11:                                               ; preds = %_ZN17QArrayDataPointerIDsE5derefEv.exit.i.i
  %12 = load ptr, ptr %8, align 8
  tail call void @_ZN10QArrayData10deallocateEPS_xx(ptr noundef %12, i64 noundef 2, i64 noundef 8) #11
  br label %_ZN7QStringD2Ev.exit

_ZN7QStringD2Ev.exit:                             ; preds = %7, %_ZN17QArrayDataPointerIDsE5derefEv.exit.i.i, %11
  %13 = getelementptr inbounds nuw i8, ptr %0, i64 64
  %14 = load ptr, ptr %13, align 8
  %.not.i.i.i1 = icmp eq ptr %14, null
  br i1 %.not.i.i.i1, label %_ZN7QStringD2Ev.exit4, label %_ZN17QArrayDataPointerIDsE5derefEv.exit.i.i2

_ZN17QArrayDataPointerIDsE5derefEv.exit.i.i2:     ; preds = %_ZN7QStringD2Ev.exit
  %15 = atomicrmw sub ptr %14, i32 1 seq_cst, align 4
  %.not.i.i3 = icmp eq i32 %15, 1
  br i1 %.not.i.i3, label %16, label %_ZN7QStringD2Ev.exit4

16:                                               ; preds = %_ZN17QArrayDataPointerIDsE5derefEv.exit.i.i2
  %17 = load ptr, ptr %13, align 8
  tail call void @_ZN10QArrayData10deallocateEPS_xx(ptr noundef %17, i64 noundef 2, i64 noundef 8) #11
  br label %_ZN7QStringD2Ev.exit4

_ZN7QStringD2Ev.exit4:                            ; preds = %_ZN7QStringD2Ev.exit, %_ZN17QArrayDataPointerIDsE5derefEv.exit.i.i2, %16
  tail call void @_ZN6QFrameD2Ev(ptr noundef align 8 dereferenceable_or_null(40) %0) #11
  ret void
}